target datalayout = "e-m:e-p270:32:32-p271:32:32-p272:64:64-i64:64-i128:128-f80:128-n8:16:32:64-S128"
target triple = "x86_64-pc-linux-gnu"

%struct.AVProbeData = type { ptr, ptr, i32, ptr }

; Function Attrs: nounwind uwtable
define internal i32 @pp_bnk_probe(ptr noundef %0) #0 {
  %2 = alloca i32, align 4
  %3 = alloca ptr, align 8
  %4 = alloca i32, align 4
  %5 = alloca i32, align 4
  %6 = alloca i32, align 4
  %7 = alloca i32, align 4
  store ptr %0, ptr %3, align 8, !tbaa !4
  call void @llvm.lifetime.start.p0(i64 4, ptr %4) #5
  %8 = load ptr, ptr %3, align 8, !tbaa !4
  %9 = getelementptr inbounds nuw %struct.AVProbeData, ptr %8, i32 0, i32 1
  %10 = load ptr, ptr %9, align 8, !tbaa !9
  %11 = getelementptr inbounds i8, ptr %10, i64 4
  %12 = load i32, ptr %11, align 1, !tbaa !13
  store i32 %12, ptr %4, align 4, !tbaa !14
  call void @llvm.lifetime.start.p0(i64 4, ptr %5) #5
  %13 = load ptr, ptr %3, align 8, !tbaa !4
  %14 = getelementptr inbounds nuw %struct.AVProbeData, ptr %13, i32 0, i32 1
  %15 = load ptr, ptr %14, align 8, !tbaa !9
  %16 = getelementptr inbounds i8, ptr %15, i64 12
  %17 = load i32, ptr %16, align 1, !tbaa !13
  store i32 %17, ptr %5, align 4, !tbaa !14
  call void @llvm.lifetime.start.p0(i64 4, ptr %6) #5
  %18 = load ptr, ptr %3, align 8, !tbaa !4
  %19 = getelementptr inbounds nuw %struct.AVProbeData, ptr %18, i32 0, i32 1
  %20 = load ptr, ptr %19, align 8, !tbaa !9
  %21 = getelementptr inbounds i8, ptr %20, i64 16
  %22 = load i32, ptr %21, align 1, !tbaa !13
  store i32 %22, ptr %6, align 4, !tbaa !14
  %23 = load i32, ptr %5, align 4, !tbaa !14
  %24 = icmp eq i32 %23, 0
  br i1 %24, label %28, label %25

25:                                               ; preds = %1
  %26 = load i32, ptr %5, align 4, !tbaa !14
  %27 = icmp ugt i32 %26, 2147483647
  br i1 %27, label %28, label %29

28:                                               ; preds = %25, %1
  store i32 0, ptr %2, align 4
  store i32 1, ptr %7, align 4
  br label %57

29:                                               ; preds = %25
  %30 = load i32, ptr %4, align 4, !tbaa !14
  %31 = icmp ne i32 %30, 5512
  br i1 %31, label %32, label %42

32:                                               ; preds = %29
  %33 = load i32, ptr %4, align 4, !tbaa !14
  %34 = icmp ne i32 %33, 11025
  br i1 %34, label %35, label %42

35:                                               ; preds = %32
  %36 = load i32, ptr %4, align 4, !tbaa !14
  %37 = icmp ne i32 %36, 22050
  br i1 %37, label %38, label %42

38:                                               ; preds = %35
  %39 = load i32, ptr %4, align 4, !tbaa !14
  %40 = icmp ne i32 %39, 44100
  br i1 %40, label %41, label %42

41:                                               ; preds = %38
  store i32 0, ptr %2, align 4
  store i32 1, ptr %7, align 4
  br label %57

42:                                               ; preds = %38, %35, %32, %29
  %43 = load ptr, ptr %3, align 8, !tbaa !4
  %44 = getelementptr inbounds nuw %struct.AVProbeData, ptr %43, i32 0, i32 1
  %45 = load ptr, ptr %44, align 8, !tbaa !9
  %46 = getelementptr inbounds i8, ptr %45, i64 28
  %47 = load i32, ptr %46, align 1, !tbaa !13
  %48 = load i32, ptr %4, align 4, !tbaa !14
  %49 = icmp ne i32 %47, %48
  br i1 %49, label %50, label %51

50:                                               ; preds = %42
  store i32 0, ptr %2, align 4
  store i32 1, ptr %7, align 4
  br label %57

51:                                               ; preds = %42
  %52 = load i32, ptr %6, align 4, !tbaa !14
  %53 = and i32 %52, -4
  %54 = icmp ne i32 %53, 0
  br i1 %54, label %55, label %56

55:                                               ; preds = %51
  store i32 0, ptr %2, align 4
  store i32 1, ptr %7, align 4
  br label %57

56:                                               ; preds = %51
  store i32 26, ptr %2, align 4
  store i32 1, ptr %7, align 4
  br label %57

57:                                               ; preds = %56, %55, %50, %41, %28
  call void @llvm.lifetime.end.p0(i64 4, ptr %6) #5
  call void @llvm.lifetime.end.p0(i64 4, ptr %5) #5
  call void @llvm.lifetime.end.p0(i64 4, ptr %4) #5
  %58 = load i32, ptr %2, align 4
  ret i32 %58
}