; Function Attrs: mustprogress nofree norecurse nosync nounwind willreturn memory(read, inaccessiblemem: none) uwtable
define internal range(i32 0, 27) i32 @pp_bnk_probe(ptr noundef readonly captures(none) %0) #0 {
  %2 = getelementptr inbounds nuw i8, ptr %0, i64 8
  %3 = load ptr, ptr %2, align 8, !tbaa !4
  %4 = getelementptr inbounds nuw i8, ptr %3, i64 4
  %5 = load i32, ptr %4, align 1, !tbaa !11
  %6 = getelementptr inbounds nuw i8, ptr %3, i64 12
  %7 = load i32, ptr %6, align 1, !tbaa !11
  %8 = getelementptr inbounds nuw i8, ptr %3, i64 16
  %9 = load i32, ptr %8, align 1, !tbaa !11
  %or.cond = icmp slt i32 %7, 1
  br i1 %or.cond, label %15, label %10

10:                                               ; preds = %1
  switch i32 %5, label %15 [
    i32 44100, label %11
    i32 22050, label %11
    i32 11025, label %11
    i32 5512, label %11
  ]

11:                                               ; preds = %10, %10, %10, %10
  %12 = getelementptr inbounds nuw i8, ptr %3, i64 28
  %13 = load i32, ptr %12, align 1, !tbaa !11
  %.not = icmp eq i32 %13, %5
  br i1 %.not, label %14, label %15

14:                                               ; preds = %11
  %.not19 = icmp ult i32 %9, 4
  %. = select i1 %.not19, i32 26, i32 0
  br label %15

15:                                               ; preds = %14, %11, %10, %1
  %.0 = phi i32 [ 0, %1 ], [ 0, %10 ], [ 0, %11 ], [ %., %14 ]
  ret i32 %.0
}